target datalayout = "e-m:e-p270:32:32-p271:32:32-p272:64:64-i64:64-i128:128-f80:128-n8:16:32:64-S128"
target triple = "x86_64-pc-linux-gnu"

%struct.pg_conn = type { ptr, ptr, ptr, ptr, ptr, ptr, ptr, ptr, ptr, ptr, ptr, ptr, ptr, ptr, ptr, ptr, ptr, ptr, ptr, ptr, ptr, ptr, ptr, ptr, ptr, ptr, ptr, ptr, ptr, ptr, ptr, ptr, ptr, ptr, ptr, ptr, ptr, ptr, ptr, ptr, ptr, ptr, ptr, i8, ptr, i32, %struct.PGNoticeHooks, ptr, i32, i32, i32, i32, i32, [6 x i8], i8, i8, i32, i8, i8, i32, i8, i32, ptr, ptr, i32, i32, ptr, ptr, ptr, ptr, ptr, i32, %struct.SockAddr, %struct.SockAddr, i32, i32, i8, i8, i8, i8, i8, i8, ptr, i8, i32, [1 x ptr], i8, i8, ptr, ptr, i32, i32, i32, i8, i8, i32, i32, ptr, i8, i64, ptr, i64, ptr, i32, i32, ptr, i32, i8, i32, i32, i32, i32, ptr, %struct.pg_prng_state, ptr, i32, i32, i32, i32, ptr, i32, i32, i32, i32, ptr, i32, ptr, i8, ptr, ptr, ptr, i32, i8, i8, i8, i8, i8, i8, i8, i8, %struct.PQExpBufferData, i32, %struct.PQExpBufferData }
%struct.PGNoticeHooks = type { ptr, ptr, ptr, ptr }
%struct.SockAddr = type { %struct.sockaddr_storage, i32 }
%struct.sockaddr_storage = type { i16, [118 x i8], i64 }
%struct.pg_prng_state = type { i64, i64 }
%struct.PQExpBufferData = type { ptr, i64, i64 }
%struct.pg_cancel = type { %struct.SockAddr, i32, i32, i32, i32, i32, i32, i32 }

@.str.5 = private unnamed_addr constant [17 x i8] c"tcp_user_timeout\00", align 1
@.str.6 = private unnamed_addr constant [11 x i8] c"keepalives\00", align 1
@.str.7 = private unnamed_addr constant [16 x i8] c"keepalives_idle\00", align 1
@.str.8 = private unnamed_addr constant [20 x i8] c"keepalives_interval\00", align 1
@.str.9 = private unnamed_addr constant [17 x i8] c"keepalives_count\00", align 1

; Function Attrs: nounwind uwtable
define ptr @PQgetCancel(ptr noundef %0) #0 {
  %2 = alloca ptr, align 8
  %3 = alloca ptr, align 8
  %4 = alloca ptr, align 8
  %5 = alloca i32, align 4
  store ptr %0, ptr %3, align 8
  call void @llvm.lifetime.start.p0(i64 8, ptr %4) #10
  %6 = load ptr, ptr %3, align 8
  %7 = icmp ne ptr %6, null
  br i1 %7, label %9, label %8

8:                                                ; preds = %1
  store ptr null, ptr %2, align 8
  store i32 1, ptr %5, align 4
  br label %123

9:                                                ; preds = %1
  %10 = load ptr, ptr %3, align 8
  %11 = getelementptr inbounds nuw %struct.pg_conn, ptr %10, i32 0, i32 71
  %12 = load i32, ptr %11, align 8
  %13 = icmp eq i32 %12, -1
  br i1 %13, label %14, label %15

14:                                               ; preds = %9
  store ptr null, ptr %2, align 8
  store i32 1, ptr %5, align 4
  br label %123

15:                                               ; preds = %9
  %16 = call noalias ptr @malloc(i64 noundef 168) #13
  store ptr %16, ptr %4, align 8
  %17 = load ptr, ptr %4, align 8
  %18 = icmp eq ptr %17, null
  br i1 %18, label %19, label %20

19:                                               ; preds = %15
  store ptr null, ptr %2, align 8
  store i32 1, ptr %5, align 4
  br label %123

20:                                               ; preds = %15
  %21 = load ptr, ptr %4, align 8
  %22 = getelementptr inbounds nuw %struct.pg_cancel, ptr %21, i32 0, i32 0
  %23 = load ptr, ptr %3, align 8
  %24 = getelementptr inbounds nuw %struct.pg_conn, ptr %23, i32 0, i32 73
  call void @llvm.memcpy.p0.p0.i64(ptr align 8 %22, ptr align 8 %24, i64 136, i1 false)
  %25 = load ptr, ptr %3, align 8
  %26 = getelementptr inbounds nuw %struct.pg_conn, ptr %25, i32 0, i32 103
  %27 = load i32, ptr %26, align 8
  %28 = load ptr, ptr %4, align 8
  %29 = getelementptr inbounds nuw %struct.pg_cancel, ptr %28, i32 0, i32 1
  store i32 %27, ptr %29, align 8
  %30 = load ptr, ptr %3, align 8
  %31 = getelementptr inbounds nuw %struct.pg_conn, ptr %30, i32 0, i32 104
  %32 = load i32, ptr %31, align 4
  %33 = load ptr, ptr %4, align 8
  %34 = getelementptr inbounds nuw %struct.pg_cancel, ptr %33, i32 0, i32 2
  store i32 %32, ptr %34, align 4
  %35 = load ptr, ptr %4, align 8
  %36 = getelementptr inbounds nuw %struct.pg_cancel, ptr %35, i32 0, i32 3
  store i32 -1, ptr %36, align 8
  %37 = load ptr, ptr %4, align 8
  %38 = getelementptr inbounds nuw %struct.pg_cancel, ptr %37, i32 0, i32 4
  store i32 -1, ptr %38, align 4
  %39 = load ptr, ptr %4, align 8
  %40 = getelementptr inbounds nuw %struct.pg_cancel, ptr %39, i32 0, i32 5
  store i32 -1, ptr %40, align 8
  %41 = load ptr, ptr %4, align 8
  %42 = getelementptr inbounds nuw %struct.pg_cancel, ptr %41, i32 0, i32 6
  store i32 -1, ptr %42, align 4
  %43 = load ptr, ptr %4, align 8
  %44 = getelementptr inbounds nuw %struct.pg_cancel, ptr %43, i32 0, i32 7
  store i32 -1, ptr %44, align 8
  %45 = load ptr, ptr %3, align 8
  %46 = getelementptr inbounds nuw %struct.pg_conn, ptr %45, i32 0, i32 4
  %47 = load ptr, ptr %46, align 8
  %48 = icmp ne ptr %47, null
  br i1 %48, label %49, label %59

49:                                               ; preds = %20
  %50 = load ptr, ptr %3, align 8
  %51 = getelementptr inbounds nuw %struct.pg_conn, ptr %50, i32 0, i32 4
  %52 = load ptr, ptr %51, align 8
  %53 = load ptr, ptr %4, align 8
  %54 = getelementptr inbounds nuw %struct.pg_cancel, ptr %53, i32 0, i32 3
  %55 = load ptr, ptr %3, align 8
  %56 = call zeroext i1 @pqParseIntParam(ptr noundef %52, ptr noundef %54, ptr noundef %55, ptr noundef @.str.5)
  br i1 %56, label %58, label %57

57:                                               ; preds = %49
  br label %121

58:                                               ; preds = %49
  br label %59

59:                                               ; preds = %58, %20
  %60 = load ptr, ptr %3, align 8
  %61 = getelementptr inbounds nuw %struct.pg_conn, ptr %60, i32 0, i32 16
  %62 = load ptr, ptr %61, align 8
  %63 = icmp ne ptr %62, null
  br i1 %63, label %64, label %74

64:                                               ; preds = %59
  %65 = load ptr, ptr %3, align 8
  %66 = getelementptr inbounds nuw %struct.pg_conn, ptr %65, i32 0, i32 16
  %67 = load ptr, ptr %66, align 8
  %68 = load ptr, ptr %4, align 8
  %69 = getelementptr inbounds nuw %struct.pg_cancel, ptr %68, i32 0, i32 4
  %70 = load ptr, ptr %3, align 8
  %71 = call zeroext i1 @pqParseIntParam(ptr noundef %67, ptr noundef %69, ptr noundef %70, ptr noundef @.str.6)
  br i1 %71, label %73, label %72

72:                                               ; preds = %64
  br label %121

73:                                               ; preds = %64
  br label %74

74:                                               ; preds = %73, %59
  %75 = load ptr, ptr %3, align 8
  %76 = getelementptr inbounds nuw %struct.pg_conn, ptr %75, i32 0, i32 17
  %77 = load ptr, ptr %76, align 8
  %78 = icmp ne ptr %77, null
  br i1 %78, label %79, label %89

79:                                               ; preds = %74
  %80 = load ptr, ptr %3, align 8
  %81 = getelementptr inbounds nuw %struct.pg_conn, ptr %80, i32 0, i32 17
  %82 = load ptr, ptr %81, align 8
  %83 = load ptr, ptr %4, align 8
  %84 = getelementptr inbounds nuw %struct.pg_cancel, ptr %83, i32 0, i32 5
  %85 = load ptr, ptr %3, align 8
  %86 = call zeroext i1 @pqParseIntParam(ptr noundef %82, ptr noundef %84, ptr noundef %85, ptr noundef @.str.7)
  br i1 %86, label %88, label %87

87:                                               ; preds = %79
  br label %121

88:                                               ; preds = %79
  br label %89

89:                                               ; preds = %88, %74
  %90 = load ptr, ptr %3, align 8
  %91 = getelementptr inbounds nuw %struct.pg_conn, ptr %90, i32 0, i32 18
  %92 = load ptr, ptr %91, align 8
  %93 = icmp ne ptr %92, null
  br i1 %93, label %94, label %104

94:                                               ; preds = %89
  %95 = load ptr, ptr %3, align 8
  %96 = getelementptr inbounds nuw %struct.pg_conn, ptr %95, i32 0, i32 18
  %97 = load ptr, ptr %96, align 8
  %98 = load ptr, ptr %4, align 8
  %99 = getelementptr inbounds nuw %struct.pg_cancel, ptr %98, i32 0, i32 6
  %100 = load ptr, ptr %3, align 8
  %101 = call zeroext i1 @pqParseIntParam(ptr noundef %97, ptr noundef %99, ptr noundef %100, ptr noundef @.str.8)
  br i1 %101, label %103, label %102

102:                                              ; preds = %94
  br label %121

103:                                              ; preds = %94
  br label %104

104:                                              ; preds = %103, %89
  %105 = load ptr, ptr %3, align 8
  %106 = getelementptr inbounds nuw %struct.pg_conn, ptr %105, i32 0, i32 19
  %107 = load ptr, ptr %106, align 8
  %108 = icmp ne ptr %107, null
  br i1 %108, label %109, label %119

109:                                              ; preds = %104
  %110 = load ptr, ptr %3, align 8
  %111 = getelementptr inbounds nuw %struct.pg_conn, ptr %110, i32 0, i32 19
  %112 = load ptr, ptr %111, align 8
  %113 = load ptr, ptr %4, align 8
  %114 = getelementptr inbounds nuw %struct.pg_cancel, ptr %113, i32 0, i32 7
  %115 = load ptr, ptr %3, align 8
  %116 = call zeroext i1 @pqParseIntParam(ptr noundef %112, ptr noundef %114, ptr noundef %115, ptr noundef @.str.9)
  br i1 %116, label %118, label %117

117:                                              ; preds = %109
  br label %121

118:                                              ; preds = %109
  br label %119

119:                                              ; preds = %118, %104
  %120 = load ptr, ptr %4, align 8
  store ptr %120, ptr %2, align 8
  store i32 1, ptr %5, align 4
  br label %123

121:                                              ; preds = %117, %102, %87, %72, %57
  %122 = load ptr, ptr %4, align 8
  call void @free(ptr noundef %122) #10
  store ptr null, ptr %2, align 8
  store i32 1, ptr %5, align 4
  br label %123

123:                                              ; preds = %121, %119, %19, %14, %8
  call void @llvm.lifetime.end.p0(i64 8, ptr %4) #10
  %124 = load ptr, ptr %2, align 8
  ret ptr %124
}