; Function Attrs: nounwind uwtable
define noundef ptr @PQgetCancel(ptr noundef %0) local_unnamed_addr #0 {
  %.not = icmp eq ptr %0, null
  br i1 %.not, label %47, label %2

2:                                                ; preds = %1
  %3 = getelementptr inbounds nuw i8, ptr %0, i64 520
  %4 = load i32, ptr %3, align 8
  %5 = icmp eq i32 %4, -1
  br i1 %5, label %47, label %6

6:                                                ; preds = %2
  %7 = tail call noalias dereferenceable_or_null(168) ptr @malloc(i64 noundef 168) #19
  %8 = icmp eq ptr %7, null
  br i1 %8, label %47, label %9

9:                                                ; preds = %6
  %10 = getelementptr inbounds nuw i8, ptr %0, i64 664
  tail call void @llvm.memcpy.p0.p0.i64(ptr noundef nonnull align 8 dereferenceable(136) %7, ptr noundef nonnull align 8 dereferenceable(136) %10, i64 136, i1 false)
  %11 = getelementptr inbounds nuw i8, ptr %0, i64 936
  %12 = load i32, ptr %11, align 8
  %13 = getelementptr inbounds nuw i8, ptr %7, i64 136
  store i32 %12, ptr %13, align 8
  %14 = getelementptr inbounds nuw i8, ptr %0, i64 940
  %15 = load i32, ptr %14, align 4
  %16 = getelementptr inbounds nuw i8, ptr %7, i64 140
  store i32 %15, ptr %16, align 4
  %17 = getelementptr inbounds nuw i8, ptr %7, i64 144
  %18 = getelementptr inbounds nuw i8, ptr %7, i64 148
  %19 = getelementptr inbounds nuw i8, ptr %7, i64 152
  %20 = getelementptr inbounds nuw i8, ptr %7, i64 156
  %21 = getelementptr inbounds nuw i8, ptr %7, i64 160
  %22 = getelementptr inbounds nuw i8, ptr %0, i64 32
  tail call void @llvm.memset.p0.i64(ptr noundef nonnull align 8 dereferenceable(20) %17, i8 -1, i64 20, i1 false)
  %23 = load ptr, ptr %22, align 8
  %.not44 = icmp eq ptr %23, null
  br i1 %.not44, label %26, label %24

24:                                               ; preds = %9
  %25 = tail call zeroext i1 @pqParseIntParam(ptr noundef nonnull %23, ptr noundef nonnull %17, ptr noundef nonnull %0, ptr noundef nonnull @.str.5) #16
  br i1 %25, label %26, label %46

26:                                               ; preds = %24, %9
  %27 = getelementptr inbounds nuw i8, ptr %0, i64 128
  %28 = load ptr, ptr %27, align 8
  %.not45 = icmp eq ptr %28, null
  br i1 %.not45, label %31, label %29

29:                                               ; preds = %26
  %30 = tail call zeroext i1 @pqParseIntParam(ptr noundef nonnull %28, ptr noundef nonnull %18, ptr noundef nonnull %0, ptr noundef nonnull @.str.6) #16
  br i1 %30, label %31, label %46

31:                                               ; preds = %29, %26
  %32 = getelementptr inbounds nuw i8, ptr %0, i64 136
  %33 = load ptr, ptr %32, align 8
  %.not46 = icmp eq ptr %33, null
  br i1 %.not46, label %36, label %34

34:                                               ; preds = %31
  %35 = tail call zeroext i1 @pqParseIntParam(ptr noundef nonnull %33, ptr noundef nonnull %19, ptr noundef nonnull %0, ptr noundef nonnull @.str.7) #16
  br i1 %35, label %36, label %46

36:                                               ; preds = %34, %31
  %37 = getelementptr inbounds nuw i8, ptr %0, i64 144
  %38 = load ptr, ptr %37, align 8
  %.not47 = icmp eq ptr %38, null
  br i1 %.not47, label %41, label %39

39:                                               ; preds = %36
  %40 = tail call zeroext i1 @pqParseIntParam(ptr noundef nonnull %38, ptr noundef nonnull %20, ptr noundef nonnull %0, ptr noundef nonnull @.str.8) #16
  br i1 %40, label %41, label %46

41:                                               ; preds = %39, %36
  %42 = getelementptr inbounds nuw i8, ptr %0, i64 152
  %43 = load ptr, ptr %42, align 8
  %.not48 = icmp eq ptr %43, null
  br i1 %.not48, label %47, label %44

44:                                               ; preds = %41
  %45 = tail call zeroext i1 @pqParseIntParam(ptr noundef nonnull %43, ptr noundef nonnull %21, ptr noundef nonnull %0, ptr noundef nonnull @.str.9) #16
  br i1 %45, label %47, label %46

46:                                               ; preds = %44, %39, %34, %29, %24
  tail call void @free(ptr noundef nonnull %7) #16
  br label %47

47:                                               ; preds = %41, %44, %6, %2, %1, %46
  %.0 = phi ptr [ null, %46 ], [ null, %1 ], [ null, %2 ], [ null, %6 ], [ %7, %44 ], [ %7, %41 ]
  ret ptr %.0
}